; Function Attrs: mustprogress nounwind uwtable
define hidden void @_ZNK11ZMountPoint16free_mountpointsEP18GrowableArrayCHeapIPcL8MEMFLAGS5EE(ptr nocapture noundef nonnull readnone align 8 dereferenceable(8) %0, ptr nocapture noundef %1) local_unnamed_addr #0 align 2 {
  %3 = load i32, ptr %1, align 4
  %4 = icmp eq i32 %3, 0
  br i1 %4, label %_ZN18ZArrayIteratorImplIPcLb0EE4nextEPS0_.exit, label %.lr.ph.preheader

.lr.ph.preheader:                                 ; preds = %2
  %5 = getelementptr inbounds i8, ptr %1, i64 8
  %6 = load ptr, ptr %5, align 8
  %7 = sext i32 %3 to i64
  br label %.lr.ph

.lr.ph:                                           ; preds = %.lr.ph.preheader, %.lr.ph
  %.sroa.0.07 = phi i64 [ %8, %.lr.ph ], [ 0, %.lr.ph.preheader ]
  %8 = add i64 %.sroa.0.07, 1
  %9 = getelementptr inbounds ptr, ptr %6, i64 %.sroa.0.07
  %10 = load ptr, ptr %9, align 8
  tail call void @free(ptr noundef %10) #11
  %.not = icmp eq i64 %8, %7
  br i1 %.not, label %_ZN18ZArrayIteratorImplIPcLb0EE4nextEPS0_.exit, label %.lr.ph, !llvm.loop !6

_ZN18ZArrayIteratorImplIPcLb0EE4nextEPS0_.exit:   ; preds = %.lr.ph, %2
  store i32 0, ptr %1, align 4
  ret void
}